target datalayout = "e-m:e-p270:32:32-p271:32:32-p272:64:64-i64:64-i128:128-f80:128-n8:16:32:64-S128"
target triple = "x86_64-pc-linux-gnu"

%struct.OutputPluginCallbacks = type { ptr, ptr, ptr, ptr, ptr, ptr, ptr, ptr, ptr, ptr, ptr, ptr, ptr, ptr, ptr, ptr, ptr, ptr, ptr, ptr, ptr }
%struct.LogicalDecodingContext = type { ptr, ptr, ptr, ptr, ptr, i8, %struct.OutputPluginCallbacks, %struct.OutputPluginOptions, ptr, ptr, ptr, ptr, ptr, ptr, ptr, i8, i8, i8, i8, i8, i64, i32, i8, i8 }
%struct.OutputPluginOptions = type { i32, i8 }
%struct.ReorderBufferTXN = type { i32, i32, i32, ptr, i64, i64, i64, ptr, i64, i16, i64, %union.anon, ptr, i64, %struct.dlist_node, ptr, i32, i64, i64, %struct.dlist_head, %struct.dlist_head, i64, ptr, ptr, %struct.dlist_head, i32, i32, ptr, %struct.dlist_node, %struct.dlist_node, %struct.pairingheap_node, i64, i64, ptr }
%union.anon = type { i64 }
%struct.dlist_head = type { %struct.dlist_node }
%struct.dlist_node = type { ptr, ptr }
%struct.pairingheap_node = type { ptr, ptr, ptr }
%struct.PGOutputTxnData = type { i8 }

@.str.4 = private unnamed_addr constant [11 x i8] c"pgoutput.c\00", align 1
@.str.28 = private unnamed_addr constant [57 x i8] c"skipped replication of an empty transaction with XID: %u\00", align 1
@__func__.pgoutput_commit_txn = private unnamed_addr constant [20 x i8] c"pgoutput_commit_txn\00", align 1

; Function Attrs: nounwind uwtable
define internal void @pgoutput_commit_txn(ptr noundef %0, ptr noundef %1, i64 noundef %2) #0 {
  %4 = alloca ptr, align 8
  %5 = alloca ptr, align 8
  %6 = alloca i64, align 8
  %7 = alloca ptr, align 8
  %8 = alloca i8, align 1
  %9 = alloca i32, align 4
  store ptr %0, ptr %4, align 8
  store ptr %1, ptr %5, align 8
  store i64 %2, ptr %6, align 8
  call void @llvm.lifetime.start.p0(i64 8, ptr %7) #10
  %10 = load ptr, ptr %5, align 8
  %11 = getelementptr inbounds nuw %struct.ReorderBufferTXN, ptr %10, i32 0, i32 33
  %12 = load ptr, ptr %11, align 8
  store ptr %12, ptr %7, align 8
  call void @llvm.lifetime.start.p0(i64 1, ptr %8) #10
  %13 = load ptr, ptr %7, align 8
  %14 = getelementptr inbounds nuw %struct.PGOutputTxnData, ptr %13, i32 0, i32 0
  %15 = load i8, ptr %14, align 1, !range !3, !noundef !4
  %16 = trunc i8 %15 to i1
  %17 = zext i1 %16 to i8
  store i8 %17, ptr %8, align 1
  %18 = load ptr, ptr %4, align 8
  %19 = load i8, ptr %8, align 1, !range !3, !noundef !4
  %20 = trunc i8 %19 to i1
  %21 = xor i1 %20, true
  call void @OutputPluginUpdateProgress(ptr noundef %18, i1 noundef zeroext %21)
  %22 = load ptr, ptr %7, align 8
  call void @pfree(ptr noundef %22)
  %23 = load ptr, ptr %5, align 8
  %24 = getelementptr inbounds nuw %struct.ReorderBufferTXN, ptr %23, i32 0, i32 33
  store ptr null, ptr %24, align 8
  %25 = load i8, ptr %8, align 1, !range !3, !noundef !4
  %26 = trunc i8 %25 to i1
  br i1 %26, label %41, label %27

27:                                               ; preds = %3
  br label %28

28:                                               ; preds = %27
  br i1 false, label %29, label %31

29:                                               ; preds = %28
  %30 = call zeroext i1 @errstart_cold(i32 noundef 14, ptr noundef null) #11
  br i1 %30, label %33, label %38

31:                                               ; preds = %28
  %32 = call zeroext i1 @errstart(i32 noundef 14, ptr noundef null)
  br i1 %32, label %33, label %38

33:                                               ; preds = %31, %29
  %34 = load ptr, ptr %5, align 8
  %35 = getelementptr inbounds nuw %struct.ReorderBufferTXN, ptr %34, i32 0, i32 1
  %36 = load i32, ptr %35, align 4
  %37 = call i32 (ptr, ...) @errmsg_internal(ptr noundef @.str.28, i32 noundef %36)
  call void @errfinish(ptr noundef @.str.4, i32 noundef 617, ptr noundef @__func__.pgoutput_commit_txn)
  br label %38

38:                                               ; preds = %33, %31, %29
  br label %39

39:                                               ; preds = %38
  br label %40

40:                                               ; preds = %39
  store i32 1, ptr %9, align 4
  br label %49

41:                                               ; preds = %3
  %42 = load ptr, ptr %4, align 8
  call void @OutputPluginPrepareWrite(ptr noundef %42, i1 noundef zeroext true)
  %43 = load ptr, ptr %4, align 8
  %44 = getelementptr inbounds nuw %struct.LogicalDecodingContext, ptr %43, i32 0, i32 12
  %45 = load ptr, ptr %44, align 8
  %46 = load ptr, ptr %5, align 8
  %47 = load i64, ptr %6, align 8
  call void @logicalrep_write_commit(ptr noundef %45, ptr noundef %46, i64 noundef %47)
  %48 = load ptr, ptr %4, align 8
  call void @OutputPluginWrite(ptr noundef %48, i1 noundef zeroext true)
  store i32 0, ptr %9, align 4
  br label %49

49:                                               ; preds = %41, %40
  call void @llvm.lifetime.end.p0(i64 1, ptr %8) #10
  call void @llvm.lifetime.end.p0(i64 8, ptr %7) #10
  %50 = load i32, ptr %9, align 4
  switch i32 %50, label %52 [
    i32 0, label %51
    i32 1, label %51
  ]

51:                                               ; preds = %49, %49
  ret void

52:                                               ; preds = %49
  unreachable
}