; Function Attrs: nounwind uwtable
define internal void @pgoutput_commit_txn(ptr noundef %0, ptr noundef %1, i64 noundef %2) #2 {
  %4 = getelementptr inbounds nuw i8, ptr %1, i64 312
  %5 = load ptr, ptr %4, align 8
  %6 = load i8, ptr %5, align 1, !range !3, !noundef !4
  %7 = trunc nuw i8 %6 to i1
  %8 = xor i1 %7, true
  tail call void @OutputPluginUpdateProgress(ptr noundef %0, i1 noundef zeroext %8) #13
  tail call void @pfree(ptr noundef nonnull %5) #13
  store ptr null, ptr %4, align 8
  br i1 %7, label %15, label %9

9:                                                ; preds = %3
  %10 = tail call zeroext i1 @errstart(i32 noundef 14, ptr noundef null) #13
  br i1 %10, label %11, label %18

11:                                               ; preds = %9
  %12 = getelementptr inbounds nuw i8, ptr %1, i64 4
  %13 = load i32, ptr %12, align 4
  %14 = tail call i32 (ptr, ...) @errmsg_internal(ptr noundef nonnull @.str.28, i32 noundef %13) #13
  tail call void @errfinish(ptr noundef nonnull @.str.4, i32 noundef 617, ptr noundef nonnull @__func__.pgoutput_commit_txn) #13
  br label %18

15:                                               ; preds = %3
  tail call void @OutputPluginPrepareWrite(ptr noundef %0, i1 noundef zeroext true) #13
  %16 = getelementptr inbounds nuw i8, ptr %0, i64 256
  %17 = load ptr, ptr %16, align 8
  tail call void @logicalrep_write_commit(ptr noundef %17, ptr noundef nonnull %1, i64 noundef %2) #13
  tail call void @OutputPluginWrite(ptr noundef %0, i1 noundef zeroext true) #13
  br label %18

18:                                               ; preds = %9, %11, %15
  ret void
}